target datalayout = "e-m:e-p270:32:32-p271:32:32-p272:64:64-i64:64-i128:128-f80:128-n8:16:32:64-S128"
target triple = "x86_64-pc-linux-gnu"

; Function Attrs: nounwind uwtable
define internal i32 @send_fp_chars(ptr noundef %0, ptr noundef %1, i32 noundef %2) #0 {
  %4 = alloca i32, align 4
  %5 = alloca ptr, align 8
  %6 = alloca ptr, align 8
  %7 = alloca i32, align 4
  store ptr %0, ptr %5, align 8, !tbaa !14
  store ptr %1, ptr %6, align 8, !tbaa !14
  store i32 %2, ptr %7, align 4, !tbaa !10
  %8 = load ptr, ptr %5, align 8, !tbaa !14
  %9 = icmp ne ptr %8, null
  br i1 %9, label %11, label %10

10:                                               ; preds = %3
  store i32 1, ptr %4, align 4
  br label %22

11:                                               ; preds = %3
  %12 = load ptr, ptr %6, align 8, !tbaa !14
  %13 = load i32, ptr %7, align 4, !tbaa !10
  %14 = sext i32 %13 to i64
  %15 = load ptr, ptr %5, align 8, !tbaa !14
  %16 = call i64 @fwrite(ptr noundef %12, i64 noundef 1, i64 noundef %14, ptr noundef %15)
  %17 = load i32, ptr %7, align 4, !tbaa !10
  %18 = zext i32 %17 to i64
  %19 = icmp ne i64 %16, %18
  br i1 %19, label %20, label %21

20:                                               ; preds = %11
  store i32 0, ptr %4, align 4
  br label %22

21:                                               ; preds = %11
  store i32 1, ptr %4, align 4
  br label %22

22:                                               ; preds = %21, %20, %10
  %23 = load i32, ptr %4, align 4
  ret i32 %23
}