; Function Attrs: nofree nounwind uwtable
define internal range(i32 0, 2) i32 @send_fp_chars(ptr noundef captures(address_is_null) %0, ptr noundef captures(none) %1, i32 noundef %2) #3 {
  %.not = icmp eq ptr %0, null
  br i1 %.not, label %8, label %4

4:                                                ; preds = %3
  %5 = sext i32 %2 to i64
  %6 = tail call i64 @fwrite(ptr noundef %1, i64 noundef 1, i64 noundef %5, ptr noundef nonnull %0)
  %7 = zext i32 %2 to i64
  %.not6 = icmp eq i64 %6, %7
  %. = zext i1 %.not6 to i32
  br label %8

8:                                                ; preds = %4, %3
  %.0 = phi i32 [ 1, %3 ], [ %., %4 ]
  ret i32 %.0
}